target datalayout = "e-m:e-p270:32:32-p271:32:32-p272:64:64-i64:64-i128:128-f80:128-n8:16:32:64-S128"
target triple = "x86_64-pc-linux-gnu"

%struct.z_stream_s = type { ptr, i32, i64, ptr, i32, i64, ptr, ptr, ptr, ptr, ptr, i32, i64, i64 }
%struct.internal_state = type { ptr, i32, ptr, i64, ptr, i64, i32, ptr, i64, i8, i32, i32, i32, i32, ptr, i64, ptr, ptr, i32, i32, i32, i32, i32, i64, i32, i32, i32, i32, i32, i32, i32, i32, i32, i32, i32, i32, i32, [573 x %struct.ct_data_s], [61 x %struct.ct_data_s], [39 x %struct.ct_data_s], %struct.tree_desc_s, %struct.tree_desc_s, %struct.tree_desc_s, [16 x i16], [573 x i32], i32, i32, [573 x i8], ptr, i32, i32, i32, i64, i64, i32, i32, i16, i32, i32, i64 }
%struct.ct_data_s = type { %union.anon, %union.anon.0 }
%union.anon = type { i16 }
%union.anon.0 = type { i16 }
%struct.tree_desc_s = type { ptr, i32, ptr }

; Function Attrs: nounwind uwtable
define internal i32 @deflateStateCheck(ptr noundef %0) #0 {
  %2 = alloca i32, align 4
  %3 = alloca ptr, align 8
  %4 = alloca ptr, align 8
  %5 = alloca i32, align 4
  store ptr %0, ptr %3, align 8, !tbaa !3
  call void @llvm.lifetime.start.p0(i64 8, ptr %4) #5
  %6 = load ptr, ptr %3, align 8, !tbaa !3
  %7 = icmp eq ptr %6, null
  br i1 %7, label %18, label %8

8:                                                ; preds = %1
  %9 = load ptr, ptr %3, align 8, !tbaa !3
  %10 = getelementptr inbounds nuw %struct.z_stream_s, ptr %9, i32 0, i32 8
  %11 = load ptr, ptr %10, align 8, !tbaa !17
  %12 = icmp eq ptr %11, null
  br i1 %12, label %18, label %13

13:                                               ; preds = %8
  %14 = load ptr, ptr %3, align 8, !tbaa !3
  %15 = getelementptr inbounds nuw %struct.z_stream_s, ptr %14, i32 0, i32 9
  %16 = load ptr, ptr %15, align 8, !tbaa !19
  %17 = icmp eq ptr %16, null
  br i1 %17, label %18, label %19

18:                                               ; preds = %13, %8, %1
  store i32 1, ptr %2, align 4
  store i32 1, ptr %5, align 4
  br label %73

19:                                               ; preds = %13
  %20 = load ptr, ptr %3, align 8, !tbaa !3
  %21 = getelementptr inbounds nuw %struct.z_stream_s, ptr %20, i32 0, i32 7
  %22 = load ptr, ptr %21, align 8, !tbaa !21
  store ptr %22, ptr %4, align 8, !tbaa !20
  %23 = load ptr, ptr %4, align 8, !tbaa !20
  %24 = icmp eq ptr %23, null
  br i1 %24, label %71, label %25

25:                                               ; preds = %19
  %26 = load ptr, ptr %4, align 8, !tbaa !20
  %27 = getelementptr inbounds nuw %struct.internal_state, ptr %26, i32 0, i32 0
  %28 = load ptr, ptr %27, align 8, !tbaa !22
  %29 = load ptr, ptr %3, align 8, !tbaa !3
  %30 = icmp ne ptr %28, %29
  br i1 %30, label %71, label %31

31:                                               ; preds = %25
  %32 = load ptr, ptr %4, align 8, !tbaa !20
  %33 = getelementptr inbounds nuw %struct.internal_state, ptr %32, i32 0, i32 1
  %34 = load i32, ptr %33, align 8, !tbaa !30
  %35 = icmp ne i32 %34, 42
  br i1 %35, label %36, label %72

36:                                               ; preds = %31
  %37 = load ptr, ptr %4, align 8, !tbaa !20
  %38 = getelementptr inbounds nuw %struct.internal_state, ptr %37, i32 0, i32 1
  %39 = load i32, ptr %38, align 8, !tbaa !30
  %40 = icmp ne i32 %39, 57
  br i1 %40, label %41, label %72

41:                                               ; preds = %36
  %42 = load ptr, ptr %4, align 8, !tbaa !20
  %43 = getelementptr inbounds nuw %struct.internal_state, ptr %42, i32 0, i32 1
  %44 = load i32, ptr %43, align 8, !tbaa !30
  %45 = icmp ne i32 %44, 69
  br i1 %45, label %46, label %72

46:                                               ; preds = %41
  %47 = load ptr, ptr %4, align 8, !tbaa !20
  %48 = getelementptr inbounds nuw %struct.internal_state, ptr %47, i32 0, i32 1
  %49 = load i32, ptr %48, align 8, !tbaa !30
  %50 = icmp ne i32 %49, 73
  br i1 %50, label %51, label %72

51:                                               ; preds = %46
  %52 = load ptr, ptr %4, align 8, !tbaa !20
  %53 = getelementptr inbounds nuw %struct.internal_state, ptr %52, i32 0, i32 1
  %54 = load i32, ptr %53, align 8, !tbaa !30
  %55 = icmp ne i32 %54, 91
  br i1 %55, label %56, label %72

56:                                               ; preds = %51
  %57 = load ptr, ptr %4, align 8, !tbaa !20
  %58 = getelementptr inbounds nuw %struct.internal_state, ptr %57, i32 0, i32 1
  %59 = load i32, ptr %58, align 8, !tbaa !30
  %60 = icmp ne i32 %59, 103
  br i1 %60, label %61, label %72

61:                                               ; preds = %56
  %62 = load ptr, ptr %4, align 8, !tbaa !20
  %63 = getelementptr inbounds nuw %struct.internal_state, ptr %62, i32 0, i32 1
  %64 = load i32, ptr %63, align 8, !tbaa !30
  %65 = icmp ne i32 %64, 113
  br i1 %65, label %66, label %72

66:                                               ; preds = %61
  %67 = load ptr, ptr %4, align 8, !tbaa !20
  %68 = getelementptr inbounds nuw %struct.internal_state, ptr %67, i32 0, i32 1
  %69 = load i32, ptr %68, align 8, !tbaa !30
  %70 = icmp ne i32 %69, 666
  br i1 %70, label %71, label %72

71:                                               ; preds = %66, %25, %19
  store i32 1, ptr %2, align 4
  store i32 1, ptr %5, align 4
  br label %73

72:                                               ; preds = %66, %61, %56, %51, %46, %41, %36, %31
  store i32 0, ptr %2, align 4
  store i32 1, ptr %5, align 4
  br label %73

73:                                               ; preds = %72, %71, %18
  call void @llvm.lifetime.end.p0(i64 8, ptr %4) #5
  %74 = load i32, ptr %2, align 4
  ret i32 %74
}

; Function Attrs: nounwind uwtable
define i32 @deflateSetHeader(ptr noundef %0, ptr noundef %1) #0 {
  %3 = alloca i32, align 4
  %4 = alloca ptr, align 8
  %5 = alloca ptr, align 8
  store ptr %0, ptr %4, align 8, !tbaa !3
  store ptr %1, ptr %5, align 8, !tbaa !89
  %6 = load ptr, ptr %4, align 8, !tbaa !3
  %7 = call i32 @deflateStateCheck(ptr noundef %6)
  %8 = icmp ne i32 %7, 0
  br i1 %8, label %16, label %9

9:                                                ; preds = %2
  %10 = load ptr, ptr %4, align 8, !tbaa !3
  %11 = getelementptr inbounds nuw %struct.z_stream_s, ptr %10, i32 0, i32 7
  %12 = load ptr, ptr %11, align 8, !tbaa !21
  %13 = getelementptr inbounds nuw %struct.internal_state, ptr %12, i32 0, i32 6
  %14 = load i32, ptr %13, align 8, !tbaa !31
  %15 = icmp ne i32 %14, 2
  br i1 %15, label %16, label %17

16:                                               ; preds = %9, %2
  store i32 -2, ptr %3, align 4
  br label %23

17:                                               ; preds = %9
  %18 = load ptr, ptr %5, align 8, !tbaa !89
  %19 = load ptr, ptr %4, align 8, !tbaa !3
  %20 = getelementptr inbounds nuw %struct.z_stream_s, ptr %19, i32 0, i32 7
  %21 = load ptr, ptr %20, align 8, !tbaa !21
  %22 = getelementptr inbounds nuw %struct.internal_state, ptr %21, i32 0, i32 7
  store ptr %18, ptr %22, align 8, !tbaa !32
  store i32 0, ptr %3, align 4
  br label %23

23:                                               ; preds = %17, %16
  %24 = load i32, ptr %3, align 4
  ret i32 %24
}