; Function Attrs: mustprogress nofree norecurse nosync nounwind willreturn memory(readwrite, inaccessiblemem: none) uwtable
define range(i32 -2, 1) i32 @deflateSetHeader(ptr noundef readonly captures(address) %0, ptr noundef %1) local_unnamed_addr #3 {
  %3 = icmp eq ptr %0, null
  br i1 %3, label %deflateStateCheck.exit.thread, label %4

4:                                                ; preds = %2
  %5 = getelementptr inbounds nuw i8, ptr %0, i64 64
  %6 = load ptr, ptr %5, align 8, !tbaa !13
  %7 = icmp eq ptr %6, null
  br i1 %7, label %deflateStateCheck.exit.thread, label %8

8:                                                ; preds = %4
  %9 = getelementptr inbounds nuw i8, ptr %0, i64 72
  %10 = load ptr, ptr %9, align 8, !tbaa !15
  %11 = icmp eq ptr %10, null
  br i1 %11, label %deflateStateCheck.exit.thread, label %12

12:                                               ; preds = %8
  %13 = getelementptr inbounds nuw i8, ptr %0, i64 56
  %14 = load ptr, ptr %13, align 8, !tbaa !16
  %15 = icmp eq ptr %14, null
  br i1 %15, label %deflateStateCheck.exit.thread, label %16

16:                                               ; preds = %12
  %17 = load ptr, ptr %14, align 8, !tbaa !17
  %.not.i = icmp eq ptr %17, %0
  br i1 %.not.i, label %18, label %deflateStateCheck.exit.thread

18:                                               ; preds = %16
  %19 = getelementptr inbounds nuw i8, ptr %14, i64 8
  %20 = load i32, ptr %19, align 8, !tbaa !26
  switch i32 %20, label %deflateStateCheck.exit.thread [
    i32 42, label %deflateStateCheck.exit
    i32 57, label %deflateStateCheck.exit
    i32 69, label %deflateStateCheck.exit
    i32 73, label %deflateStateCheck.exit
    i32 91, label %deflateStateCheck.exit
    i32 103, label %deflateStateCheck.exit
    i32 113, label %deflateStateCheck.exit
    i32 666, label %deflateStateCheck.exit
  ]

deflateStateCheck.exit:                           ; preds = %18, %18, %18, %18, %18, %18, %18, %18
  %21 = getelementptr inbounds nuw i8, ptr %14, i64 48
  %22 = load i32, ptr %21, align 8, !tbaa !27
  %.not4 = icmp eq i32 %22, 2
  br i1 %.not4, label %23, label %deflateStateCheck.exit.thread

23:                                               ; preds = %deflateStateCheck.exit
  %24 = getelementptr inbounds nuw i8, ptr %14, i64 56
  store ptr %1, ptr %24, align 8, !tbaa !28
  br label %deflateStateCheck.exit.thread

deflateStateCheck.exit.thread:                    ; preds = %12, %16, %18, %2, %4, %8, %deflateStateCheck.exit, %23
  %.0 = phi i32 [ 0, %23 ], [ -2, %deflateStateCheck.exit ], [ -2, %8 ], [ -2, %4 ], [ -2, %2 ], [ -2, %18 ], [ -2, %16 ], [ -2, %12 ]
  ret i32 %.0
}